target datalayout = "e-m:e-p270:32:32-p271:32:32-p272:64:64-i64:64-i128:128-f80:128-n8:16:32:64-S128"
target triple = "x86_64-pc-linux-gnu"

%"struct.ofbx::DataView" = type <{ ptr, ptr, i8, [7 x i8] }>

; Function Attrs: mustprogress nounwind uwtable
define noundef i64 @_ZNK4ofbx8DataView5toU64Ev(ptr noundef nonnull align 8 dereferenceable(17) %0) #0 align 2 {
  %2 = alloca i64, align 8
  %3 = alloca ptr, align 8
  store ptr %0, ptr %3, align 8
  %4 = load ptr, ptr %3, align 8
  %5 = getelementptr inbounds %"struct.ofbx::DataView", ptr %4, i32 0, i32 2
  %6 = load i8, ptr %5, align 8
  %7 = trunc i8 %6 to i1
  br i1 %7, label %8, label %12

8:                                                ; preds = %1
  %9 = getelementptr inbounds %"struct.ofbx::DataView", ptr %4, i32 0, i32 0
  %10 = load ptr, ptr %9, align 8
  %11 = load i64, ptr %10, align 8
  store i64 %11, ptr %2, align 8
  br label %16

12:                                               ; preds = %1
  %13 = getelementptr inbounds %"struct.ofbx::DataView", ptr %4, i32 0, i32 0
  %14 = load ptr, ptr %13, align 8
  %15 = call i64 @strtoull(ptr noundef %14, ptr noundef null, i32 noundef 10) #13
  store i64 %15, ptr %2, align 8
  br label %16

16:                                               ; preds = %12, %8
  %17 = load i64, ptr %2, align 8
  ret i64 %17
}