; Function Attrs: mustprogress nofree nounwind willreturn uwtable
define noundef i64 @_ZNK4ofbx8DataView5toU64Ev(ptr nocapture noundef nonnull readonly align 8 dereferenceable(17) %0) local_unnamed_addr #0 align 2 {
  %2 = getelementptr inbounds i8, ptr %0, i64 16
  %3 = load i8, ptr %2, align 8
  %4 = and i8 %3, 1
  %.not = icmp eq i8 %4, 0
  %5 = load ptr, ptr %0, align 8
  br i1 %.not, label %8, label %6

6:                                                ; preds = %1
  %7 = load i64, ptr %5, align 8
  br label %10

8:                                                ; preds = %1
  %9 = tail call i64 @strtoull(ptr nocapture noundef %5, ptr noundef null, i32 noundef 10) #29
  br label %10

10:                                               ; preds = %8, %6
  %.0 = phi i64 [ %7, %6 ], [ %9, %8 ]
  ret i64 %.0
}